target datalayout = "e-m:e-p270:32:32-p271:32:32-p272:64:64-i64:64-i128:128-f80:128-n8:16:32:64-S128"
target triple = "x86_64-unknown-linux-gnu"

; Function Attrs: nounwind uwtable
define internal i32 @experimental_hooks_safety_check_abort_ctl(ptr noundef %tsd, ptr noundef %mib, i64 noundef %miblen, ptr noundef %oldp, ptr noundef %oldlenp, ptr noundef %newp, i64 noundef %newlen) #0 {
entry:
  %tsd.addr = alloca ptr, align 8
  %mib.addr = alloca ptr, align 8
  %miblen.addr = alloca i64, align 8
  %oldp.addr = alloca ptr, align 8
  %oldlenp.addr = alloca ptr, align 8
  %newp.addr = alloca ptr, align 8
  %newlen.addr = alloca i64, align 8
  %ret = alloca i32, align 4
  %hook = alloca ptr, align 8
  store ptr %tsd, ptr %tsd.addr, align 8
  store ptr %mib, ptr %mib.addr, align 8
  store i64 %miblen, ptr %miblen.addr, align 8
  store ptr %oldp, ptr %oldp.addr, align 8
  store ptr %oldlenp, ptr %oldlenp.addr, align 8
  store ptr %newp, ptr %newp.addr, align 8
  store i64 %newlen, ptr %newlen.addr, align 8
  br label %do.body

do.body:                                          ; preds = %entry
  %0 = load ptr, ptr %oldp.addr, align 8
  %cmp = icmp ne ptr %0, null
  br i1 %cmp, label %if.then, label %lor.lhs.false

lor.lhs.false:                                    ; preds = %do.body
  %1 = load ptr, ptr %oldlenp.addr, align 8
  %cmp1 = icmp ne ptr %1, null
  br i1 %cmp1, label %if.then, label %if.end

if.then:                                          ; preds = %lor.lhs.false, %do.body
  store i32 1, ptr %ret, align 4
  br label %label_return

if.end:                                           ; preds = %lor.lhs.false
  br label %do.end

do.end:                                           ; preds = %if.end
  %2 = load ptr, ptr %newp.addr, align 8
  %cmp2 = icmp ne ptr %2, null
  br i1 %cmp2, label %if.then3, label %if.end15

if.then3:                                         ; preds = %do.end
  %3 = load i64, ptr %newlen.addr, align 8
  %cmp4 = icmp ne i64 %3, 8
  br i1 %cmp4, label %if.then5, label %if.end6

if.then5:                                         ; preds = %if.then3
  store i32 22, ptr %ret, align 4
  br label %label_return

if.end6:                                          ; preds = %if.then3
  store ptr null, ptr %hook, align 8
  br label %do.body7

do.body7:                                         ; preds = %if.end6
  %4 = load ptr, ptr %newp.addr, align 8
  %cmp8 = icmp ne ptr %4, null
  br i1 %cmp8, label %if.then9, label %if.end13

if.then9:                                         ; preds = %do.body7
  %5 = load i64, ptr %newlen.addr, align 8
  %cmp10 = icmp ne i64 %5, 8
  br i1 %cmp10, label %if.then11, label %if.end12

if.then11:                                        ; preds = %if.then9
  store i32 22, ptr %ret, align 4
  br label %label_return

if.end12:                                         ; preds = %if.then9
  %6 = load ptr, ptr %newp.addr, align 8
  %7 = load ptr, ptr %6, align 8
  store ptr %7, ptr %hook, align 8
  br label %if.end13

if.end13:                                         ; preds = %if.end12, %do.body7
  br label %do.end14

do.end14:                                         ; preds = %if.end13
  %8 = load ptr, ptr %hook, align 8
  call void @safety_check_set_abort(ptr noundef %8)
  br label %if.end15

if.end15:                                         ; preds = %do.end14, %do.end
  store i32 0, ptr %ret, align 4
  br label %label_return

label_return:                                     ; preds = %if.end15, %if.then11, %if.then5, %if.then
  %9 = load i32, ptr %ret, align 4
  ret i32 %9
}