; Function Attrs: nounwind uwtable
define internal noundef i32 @experimental_hooks_safety_check_abort_ctl(ptr nocapture readnone %tsd, ptr nocapture readnone %mib, i64 %miblen, ptr noundef readnone %oldp, ptr noundef readnone %oldlenp, ptr noundef readonly %newp, i64 noundef %newlen) #0 {
entry:
  %cmp = icmp ne ptr %oldp, null
  %cmp1 = icmp ne ptr %oldlenp, null
  %or.cond = or i1 %cmp, %cmp1
  br i1 %or.cond, label %label_return, label %do.end

do.end:                                           ; preds = %entry
  %cmp2.not = icmp eq ptr %newp, null
  br i1 %cmp2.not, label %label_return, label %if.then3

if.then3:                                         ; preds = %do.end
  %cmp4.not = icmp eq i64 %newlen, 8
  br i1 %cmp4.not, label %do.end14, label %label_return

do.end14:                                         ; preds = %if.then3
  %0 = load ptr, ptr %newp, align 8
  tail call void @safety_check_set_abort(ptr noundef %0) #14
  br label %label_return

label_return:                                     ; preds = %do.end, %do.end14, %if.then3, %entry
  %ret.0 = phi i32 [ 1, %entry ], [ 22, %if.then3 ], [ 0, %do.end14 ], [ 0, %do.end ]
  ret i32 %ret.0
}